; ModuleID = '10/1054.c'
source_filename = "10/1054.c"
target datalayout = "e-m:e-p270:32:32-p271:32:32-p272:64:64-i64:64-f80:128-n8:16:32:64-S128"
target triple = "x86_64-pc-linux-gnu"

@.str = private unnamed_addr constant [3 x i8] c"%d\00", align 1

; Function Attrs: noinline nounwind uwtable
define dso_local i32 @main() #0 {
  %1 = alloca i32, align 4
  %2 = alloca i32, align 4
  %3 = alloca i32, align 4
  %4 = alloca i32, align 4
  %5 = alloca i32, align 4
  %6 = alloca i32, align 4
  %7 = alloca i32, align 4
  %8 = alloca i32, align 4
  %9 = alloca [26 x i32], align 16
  %10 = alloca [26 x i32], align 16
  store i32 0, i32* %1, align 4
  %11 = call i32 (i8*, ...) @__isoc99_scanf(i8* getelementptr inbounds ([3 x i8], [3 x i8]* @.str, i64 0, i64 0), i32* %2)
  %12 = load i32, i32* %2, align 4
  %13 = sub nsw i32 %12, 1
  store i32 %13, i32* %3, align 4
  br label %14

14:                                               ; preds = %22, %0
  %15 = load i32, i32* %3, align 4
  %16 = icmp sge i32 %15, 0
  br i1 %16, label %17, label %25

17:                                               ; preds = %14
  %18 = load i32, i32* %3, align 4
  %19 = sext i32 %18 to i64
  %20 = getelementptr inbounds [26 x i32], [26 x i32]* %9, i64 0, i64 %19
  %21 = call i32 (i8*, ...) @__isoc99_scanf(i8* getelementptr inbounds ([3 x i8], [3 x i8]* @.str, i64 0, i64 0), i32* %20)
  br label %22

22:                                               ; preds = %17
  %23 = load i32, i32* %3, align 4
  %24 = add nsw i32 %23, -1
  store i32 %24, i32* %3, align 4
  br label %14

25:                                               ; preds = %14
  %26 = getelementptr inbounds [26 x i32], [26 x i32]* %10, i64 0, i64 0
  store i32 1, i32* %26, align 16
  store i32 0, i32* %3, align 4
  br label %27

27:                                               ; preds = %63, %25
  %28 = load i32, i32* %3, align 4
  %29 = load i32, i32* %2, align 4
  %30 = sub nsw i32 %29, 1
  %31 = icmp sle i32 %28, %30
  br i1 %31, label %32, label %71

32:                                               ; preds = %27
  store i32 0, i32* %5, align 4
  store i32 0, i32* %6, align 4
  br label %33

33:                                               ; preds = %60, %32
  %34 = load i32, i32* %5, align 4
  %35 = load i32, i32* %3, align 4
  %36 = icmp slt i32 %34, %35
  br i1 %36, label %37, label %63

37:                                               ; preds = %33
  %38 = load i32, i32* %5, align 4
  %39 = sext i32 %38 to i64
  %40 = getelementptr inbounds [26 x i32], [26 x i32]* %9, i64 0, i64 %39
  %41 = load i32, i32* %40, align 4
  %42 = load i32, i32* %3, align 4
  %43 = sext i32 %42 to i64
  %44 = getelementptr inbounds [26 x i32], [26 x i32]* %9, i64 0, i64 %43
  %45 = load i32, i32* %44, align 4
  %46 = icmp sle i32 %41, %45
  br i1 %46, label %47, label %60

47:                                               ; preds = %37
  %48 = load i32, i32* %5, align 4
  %49 = sext i32 %48 to i64
  %50 = getelementptr inbounds [26 x i32], [26 x i32]* %10, i64 0, i64 %49
  %51 = load i32, i32* %50, align 4
  %52 = load i32, i32* %6, align 4
  %53 = icmp sge i32 %51, %52
  br i1 %53, label %54, label %59

54:                                               ; preds = %47
  %55 = load i32, i32* %5, align 4
  %56 = sext i32 %55 to i64
  %57 = getelementptr inbounds [26 x i32], [26 x i32]* %10, i64 0, i64 %56
  %58 = load i32, i32* %57, align 4
  store i32 %58, i32* %6, align 4
  br label %59

59:                                               ; preds = %54, %47
  br label %60

60:                                               ; preds = %59, %37
  %61 = load i32, i32* %5, align 4
  %62 = add nsw i32 %61, 1
  store i32 %62, i32* %5, align 4
  br label %33

63:                                               ; preds = %33
  %64 = load i32, i32* %6, align 4
  %65 = add nsw i32 %64, 1
  %66 = load i32, i32* %3, align 4
  %67 = sext i32 %66 to i64
  %68 = getelementptr inbounds [26 x i32], [26 x i32]* %10, i64 0, i64 %67
  store i32 %65, i32* %68, align 4
  %69 = load i32, i32* %3, align 4
  %70 = add nsw i32 %69, 1
  store i32 %70, i32* %3, align 4
  br label %27

71:                                               ; preds = %27
  store i32 1, i32* %8, align 4
  store i32 0, i32* %3, align 4
  br label %72

72:                                               ; preds = %90, %71
  %73 = load i32, i32* %3, align 4
  %74 = load i32, i32* %2, align 4
  %75 = sub nsw i32 %74, 1
  %76 = icmp sle i32 %73, %75
  br i1 %76, label %77, label %93

77:                                               ; preds = %72
  %78 = load i32, i32* %3, align 4
  %79 = sext i32 %78 to i64
  %80 = getelementptr inbounds [26 x i32], [26 x i32]* %10, i64 0, i64 %79
  %81 = load i32, i32* %80, align 4
  %82 = load i32, i32* %8, align 4
  %83 = icmp sge i32 %81, %82
  br i1 %83, label %84, label %89

84:                                               ; preds = %77
  %85 = load i32, i32* %3, align 4
  %86 = sext i32 %85 to i64
  %87 = getelementptr inbounds [26 x i32], [26 x i32]* %10, i64 0, i64 %86
  %88 = load i32, i32* %87, align 4
  store i32 %88, i32* %8, align 4
  br label %89

89:                                               ; preds = %84, %77
  br label %90

90:                                               ; preds = %89
  %91 = load i32, i32* %3, align 4
  %92 = add nsw i32 %91, 1
  store i32 %92, i32* %3, align 4
  br label %72

93:                                               ; preds = %72
  %94 = load i32, i32* %8, align 4
  %95 = call i32 (i8*, ...) @printf(i8* getelementptr inbounds ([3 x i8], [3 x i8]* @.str, i64 0, i64 0), i32 %94)
  %96 = load i32, i32* %1, align 4
  ret i32 %96
}

declare dso_local i32 @__isoc99_scanf(i8*, ...) #1

declare dso_local i32 @printf(i8*, ...) #1


!llvm.module.flags = !{!0}
!llvm.ident = !{!1}

!0 = !{i32 1, !"wchar_size", i32 4}
!1 = !{!"clang version 10.0.0-4ubuntu1 "}
